-----BEGIN RSA PRIVATE KEY-----
MIICXAIBAAKBgQDNo9iIeIifo0astEKSDLU/TsIVckZ4/K/b/8KrZ6cE6Lx7wROE
u/QWjEXYe6nPRX80TeQ4zEe989QMLkD9p28binly7c8SyGNMlTGKLDksNndVMa1r
bXS+XxeqJ6I1VDe7c42jb9E4wzgpCkHlitG+r/va9rx+GqHVZFs05YctVQIDAQAB
AoGAVa7ea0alzrZunUlir44h+yXq0prR6FmJQQaZa2f9/Jqo5nu1kUnrU3XRKHmm
cJnJfdaysEPV5Lzy7rxbEhWwwi6vq5gvPWkRgJ5VLFQv3/l65+ZLgq3E9a9pv6uz
AG77YDzHuTKpc5o0Nc1G+vvdsklAM3RwA0TRXmcDMj9EZYUCQQDsXKkdfuoZGzj+
a6nlV7SaiANuG9WSTBoFAbJtKDBOm8HucvjmnrCD8NRRz8zMJZ86E6vdPyotOAy1
92DgSD8HAkEA3rm9cxml08Ar9xes1WCIbKFaskJBXfOAOhqgUBMjbMDo4MgS2L8f
+TszJPsUfXRLRRjEdEpSZDl7gOqIk5G9wwJAR6MB4p2vp/JXQM0yzf7aDygAGiQ3
g8Kq9C+Ce5D9qyWMDpAsHgGksCiSwUUA5jLU4o5JvaHCT7g4KgKTCwb6iwJBAMSs
QXV07XC5nlkYB9932aALL3p/dRdQYSdtwahT7hEnm7x6D+Jjiwla1EPQjvxlB95h
C4Eg6/ZiqANjluywYl8CQFn3HbACM4//Yy0Z50gvokERAYW9W/94J+4W3siB4lmC
FBa29h7GVu0Zt1G9OQBfi0dmp2UN3NjfZaCrhXAShTQ=
-----END RSA PRIVATE KEY-----
Certificate:
    Data:
        Version: 3 (0x2)
        Serial Number: 2 (0x2)
        Signature Algorithm: md5WithRSAEncryption
        Issuer: CN=Local CAPWAP Root Certificate Authority, ST=Some State, C=IT/emailAddress=root@somename.somewhere.com, O=Root Certificate Authority, OU=My Subunit of Large Organization
        Validity
            Not Before: Oct  5 09:58:10 2006 GMT
            Not After : Oct  4 09:58:10 2011 GMT
        Subject: CN=somename.somewhere.com, ST=Some State, C=IT/emailAddress=root@somename.somewhere.com, O=My Large Organization Name, OU=My Subunit of Large Organization
        Subject Public Key Info:
            Public Key Algorithm: rsaEncryption
            RSA Public Key: (1024 bit)
                Modulus (1024 bit):
                    00:cd:a3:d8:88:78:88:9f:a3:46:ac:b4:42:92:0c:
                    b5:3f:4e:c2:15:72:46:78:fc:af:db:ff:c2:ab:67:
                    a7:04:e8:bc:7b:c1:13:84:bb:f4:16:8c:45:d8:7b:
                    a9:cf:45:7f:34:4d:e4:38:cc:47:bd:f3:d4:0c:2e:
                    40:fd:a7:6f:1b:8a:79:72:ed:cf:12:c8:63:4c:95:
                    31:8a:2c:39:2c:36:77:55:31:ad:6b:6d:74:be:5f:
                    17:aa:27:a2:35:54:37:bb:73:8d:a3:6f:d1:38:c3:
                    38:29:0a:41:e5:8a:d1:be:af:fb:da:f6:bc:7e:1a:
                    a1:d5:64:5b:34:e5:87:2d:55
                Exponent: 65537 (0x10001)
        X509v3 extensions:
            X509v3 Extended Key Usage: 
                1.3.6.1.5.5.7.3.19
            Netscape Cert Type: 
                SSL Client
            X509v3 Subject Alternative Name: 
                DNS:altname.somewhere.com
            X509v3 Basic Constraints: 
                CA:FALSE
    Signature Algorithm: md5WithRSAEncryption
        91:b8:93:f1:01:49:44:55:7d:09:f1:d8:69:7e:5f:bf:a5:7a:
        a0:f5:32:5f:8a:df:47:0d:87:b8:da:76:49:17:24:6b:e0:fd:
        67:b4:43:8c:1d:c6:68:d3:82:7f:0c:b5:48:80:af:3a:58:fd:
        73:99:dc:f5:b8:17:af:99:6d:ce:0e:19:e9:a5:74:03:90:c9:
        02:e4:72:b2:56:07:43:67:61:8b:33:da:5a:b5:39:dc:c9:eb:
        f2:5f:10:35:c5:14:18:ac:3f:f5:70:a6:63:c6:d4:0c:d4:f7:
        4d:6f:ea:2d:0d:6f:4a:65:27:af:ff:b7:9f:fa:d0:83:8d:a2:
        df:a3
-----BEGIN CERTIFICATE-----
MIIDXjCCAsegAwIBAgIBAjANBgkqhkiG9w0BAQQFADCB0DEwMC4GA1UEAxMnTG9j
YWwgQ0FQV0FQIFJvb3QgQ2VydGlmaWNhdGUgQXV0aG9yaXR5MRMwEQYDVQQIEwpT
b21lIFN0YXRlMQswCQYDVQQGEwJJVDEqMCgGCSqGSIb3DQEJARYbcm9vdEBzb21l
bmFtZS5zb21ld2hlcmUuY29tMSMwIQYDVQQKExpSb290IENlcnRpZmljYXRlIEF1
dGhvcml0eTEpMCcGA1UECxMgTXkgU3VidW5pdCBvZiBMYXJnZSBPcmdhbml6YXRp
b24wHhcNMDYxMDA1MDk1ODEwWhcNMTExMDA0MDk1ODEwWjCBvzEfMB0GA1UEAxMW
c29tZW5hbWUuc29tZXdoZXJlLmNvbTETMBEGA1UECBMKU29tZSBTdGF0ZTELMAkG
A1UEBhMCSVQxKjAoBgkqhkiG9w0BCQEWG3Jvb3RAc29tZW5hbWUuc29tZXdoZXJl
LmNvbTEjMCEGA1UEChMaTXkgTGFyZ2UgT3JnYW5pemF0aW9uIE5hbWUxKTAnBgNV
BAsTIE15IFN1YnVuaXQgb2YgTGFyZ2UgT3JnYW5pemF0aW9uMIGfMA0GCSqGSIb3
DQEBAQUAA4GNADCBiQKBgQDNo9iIeIifo0astEKSDLU/TsIVckZ4/K/b/8KrZ6cE
6Lx7wROEu/QWjEXYe6nPRX80TeQ4zEe989QMLkD9p28binly7c8SyGNMlTGKLDks
NndVMa1rbXS+XxeqJ6I1VDe7c42jb9E4wzgpCkHlitG+r/va9rx+GqHVZFs05Yct
VQIDAQABo1cwVTATBgNVHSUEDDAKBggrBgEFBQcDEzARBglghkgBhvhCAQEEBAMC
B4AwIAYDVR0RBBkwF4IVYWx0bmFtZS5zb21ld2hlcmUuY29tMAkGA1UdEwQCMAAw
DQYJKoZIhvcNAQEEBQADgYEAkbiT8QFJRFV9CfHYaX5fv6V6oPUyX4rfRw2HuNp2
SRcka+D9Z7RDjB3GaNOCfwy1SICvOlj9c5nc9bgXr5ltzg4Z6aV0A5DJAuRyslYH
Q2dhizPaWrU53Mnr8l8QNcUUGKw/9XCmY8bUDNT3TW/qLQ1vSmUnr/+3n/rQg42i
36M=
-----END CERTIFICATE-----
